target datalayout = "e-m:e-p270:32:32-p271:32:32-p272:64:64-i64:64-i128:128-f80:128-n8:16:32:64-S128"
target triple = "x86_64-pc-linux-gnu"

%struct.opcua_keylog_parser_ctx = type { ptr, i64 }

@.str.75 = private unnamed_addr constant [2 x i8] c"\0A\00", align 1

; Function Attrs: nounwind null_pointer_is_valid sspstrong uwtable
define internal ptr @ua_strtok_r(ptr noundef %0, ptr noundef %1, ptr noundef %2) #0 {
  %4 = alloca ptr, align 8
  %5 = alloca ptr, align 8
  %6 = alloca ptr, align 8
  store ptr %0, ptr %4, align 8
  store ptr %1, ptr %5, align 8
  store ptr %2, ptr %6, align 8
  %7 = load ptr, ptr %4, align 8
  %8 = load ptr, ptr %5, align 8
  %9 = load ptr, ptr %6, align 8
  %10 = call ptr @strtok_r(ptr noundef %7, ptr noundef %8, ptr noundef %9) #9
  ret ptr %10
}

; Function Attrs: null_pointer_is_valid sspstrong uwtable
define internal void @opcua_keylog_process_lines(ptr noundef %0) #4 {
  %2 = alloca ptr, align 8
  %3 = alloca %struct.opcua_keylog_parser_ctx, align 8
  %4 = alloca ptr, align 8
  %5 = alloca ptr, align 8
  store ptr %0, ptr %2, align 8
  call void @llvm.lifetime.start.p0(i64 16, ptr %3) #9
  call void @llvm.memset.p0.i64(ptr align 8 %3, i8 0, i64 16, i1 false)
  call void @llvm.lifetime.start.p0(i64 8, ptr %4) #9
  call void @llvm.lifetime.start.p0(i64 8, ptr %5) #9
  %6 = load ptr, ptr %2, align 8
  %7 = call ptr @ua_strtok_r(ptr noundef %6, ptr noundef @.str.75, ptr noundef %4)
  store ptr %7, ptr %5, align 8
  br label %8

8:                                                ; preds = %11, %1
  %9 = load ptr, ptr %5, align 8
  %10 = icmp ne ptr %9, null
  br i1 %10, label %11, label %14

11:                                               ; preds = %8
  %12 = load ptr, ptr %5, align 8
  call void @opcua_keylog_process_line(ptr noundef %3, ptr noundef %12)
  %13 = call ptr @ua_strtok_r(ptr noundef null, ptr noundef @.str.75, ptr noundef %4)
  store ptr %13, ptr %5, align 8
  br label %8, !llvm.loop !13

14:                                               ; preds = %8
  call void @ua_keysets_sort()
  call void @llvm.lifetime.end.p0(i64 8, ptr %5) #9
  call void @llvm.lifetime.end.p0(i64 8, ptr %4) #9
  call void @llvm.lifetime.end.p0(i64 16, ptr %3) #9
  ret void
}

; Function Attrs: null_pointer_is_valid sspstrong uwtable
define internal void @opcua_secrets_block_callback(ptr noundef %0, i32 noundef %1) #4 {
  %3 = alloca ptr, align 8
  %4 = alloca i32, align 4
  %5 = alloca ptr, align 8
  %6 = alloca i32, align 4
  store ptr %0, ptr %3, align 8
  store i32 %1, ptr %4, align 4
  call void @llvm.lifetime.start.p0(i64 8, ptr %5) #9
  %7 = load ptr, ptr %3, align 8
  %8 = load i32, ptr %4, align 4
  %9 = add i32 %8, 1
  %10 = zext i32 %9 to i64
  %11 = call ptr @g_memdup2(ptr noundef %7, i64 noundef %10) #11
  store ptr %11, ptr %5, align 8
  %12 = load ptr, ptr %5, align 8
  %13 = icmp eq ptr %12, null
  br i1 %13, label %14, label %15

14:                                               ; preds = %2
  store i32 1, ptr %6, align 4
  br label %22

15:                                               ; preds = %2
  %16 = load ptr, ptr %5, align 8
  %17 = load i32, ptr %4, align 4
  %18 = zext i32 %17 to i64
  %19 = getelementptr i8, ptr %16, i64 %18
  store i8 0, ptr %19, align 1
  %20 = load ptr, ptr %5, align 8
  call void @opcua_keylog_process_lines(ptr noundef %20)
  %21 = load ptr, ptr %5, align 8
  call void @g_free(ptr noundef %21)
  store i32 0, ptr %6, align 4
  br label %22

22:                                               ; preds = %15, %14
  call void @llvm.lifetime.end.p0(i64 8, ptr %5) #9
  %23 = load i32, ptr %6, align 4
  switch i32 %23, label %25 [
    i32 0, label %24
    i32 1, label %24
  ]

24:                                               ; preds = %22, %22
  ret void

25:                                               ; preds = %22
  unreachable
}