; Function Attrs: null_pointer_is_valid sspstrong uwtable
define internal void @opcua_secrets_block_callback(ptr noundef %0, i32 noundef %1) #4 {
  %3 = alloca %struct.opcua_keylog_parser_ctx, align 8
  %4 = alloca ptr, align 8
  %5 = add i32 %1, 1
  %6 = zext i32 %5 to i64
  %7 = tail call ptr @g_memdup2(ptr noundef %0, i64 noundef %6) #12
  %8 = icmp eq ptr %7, null
  br i1 %8, label %14, label %9

9:                                                ; preds = %2
  %10 = zext i32 %1 to i64
  %11 = getelementptr i8, ptr %7, i64 %10
  store i8 0, ptr %11, align 1
  call void @llvm.lifetime.start.p0(i64 16, ptr nonnull %3) #11
  call void @llvm.memset.p0.i64(ptr noundef nonnull align 8 dereferenceable(16) %3, i8 0, i64 16, i1 false)
  call void @llvm.lifetime.start.p0(i64 8, ptr nonnull %4) #11
  %12 = call ptr @strtok_r(ptr noundef nonnull %7, ptr noundef nonnull @.str.75, ptr noundef nonnull %4) #11
  %.not3.i = icmp eq ptr %12, null
  br i1 %.not3.i, label %opcua_keylog_process_lines.exit, label %.lr.ph.i

.lr.ph.i:                                         ; preds = %9, %.lr.ph.i
  %.04.i = phi ptr [ %13, %.lr.ph.i ], [ %12, %9 ]
  call fastcc void @opcua_keylog_process_line(ptr noundef nonnull %3, ptr noundef nonnull %.04.i)
  %13 = call ptr @strtok_r(ptr noundef null, ptr noundef nonnull @.str.75, ptr noundef nonnull %4) #11
  %.not.i = icmp eq ptr %13, null
  br i1 %.not.i, label %opcua_keylog_process_lines.exit, label %.lr.ph.i, !llvm.loop !9

opcua_keylog_process_lines.exit:                  ; preds = %.lr.ph.i, %9
  call void @ua_keysets_sort()
  call void @llvm.lifetime.end.p0(i64 8, ptr nonnull %4) #11
  call void @llvm.lifetime.end.p0(i64 16, ptr nonnull %3) #11
  call void @g_free(ptr noundef nonnull %7)
  br label %14

14:                                               ; preds = %2, %opcua_keylog_process_lines.exit
  ret void
}